; ModuleID = '34/416.c'
source_filename = "34/416.c"
target datalayout = "e-m:e-p270:32:32-p271:32:32-p272:64:64-i64:64-f80:128-n8:16:32:64-S128"
target triple = "x86_64-pc-linux-gnu"

@.str = private unnamed_addr constant [3 x i8] c"%d\00", align 1
@.str.1 = private unnamed_addr constant [4 x i8] c"End\00", align 1
@.str.2 = private unnamed_addr constant [9 x i8] c"%d/2=%d\0A\00", align 1
@.str.3 = private unnamed_addr constant [11 x i8] c"%d*3+1=%d\0A\00", align 1
@.str.4 = private unnamed_addr constant [5 x i8] c"End\0A\00", align 1

; Function Attrs: noinline nounwind uwtable
define dso_local i32 @main() #0 {
  %1 = alloca i32, align 4
  %2 = alloca i32, align 4
  %3 = alloca i32, align 4
  store i32 0, i32* %1, align 4
  %4 = call i32 (i8*, ...) @__isoc99_scanf(i8* getelementptr inbounds ([3 x i8], [3 x i8]* @.str, i64 0, i64 0), i32* %2)
  %5 = load i32, i32* %2, align 4
  %6 = icmp eq i32 %5, 1
  br i1 %6, label %7, label %9

7:                                                ; preds = %0
  %8 = call i32 (i8*, ...) @printf(i8* getelementptr inbounds ([4 x i8], [4 x i8]* @.str.1, i64 0, i64 0))
  br label %40

9:                                                ; preds = %0
  store i32 0, i32* %3, align 4
  br label %10

10:                                               ; preds = %35, %9
  %11 = load i32, i32* %2, align 4
  %12 = srem i32 %11, 2
  %13 = icmp eq i32 %12, 0
  br i1 %13, label %14, label %21

14:                                               ; preds = %10
  %15 = load i32, i32* %2, align 4
  %16 = load i32, i32* %2, align 4
  %17 = sdiv i32 %16, 2
  %18 = call i32 (i8*, ...) @printf(i8* getelementptr inbounds ([9 x i8], [9 x i8]* @.str.2, i64 0, i64 0), i32 %15, i32 %17)
  %19 = load i32, i32* %2, align 4
  %20 = sdiv i32 %19, 2
  store i32 %20, i32* %2, align 4
  br label %30

21:                                               ; preds = %10
  %22 = load i32, i32* %2, align 4
  %23 = load i32, i32* %2, align 4
  %24 = mul nsw i32 3, %23
  %25 = add nsw i32 %24, 1
  %26 = call i32 (i8*, ...) @printf(i8* getelementptr inbounds ([11 x i8], [11 x i8]* @.str.3, i64 0, i64 0), i32 %22, i32 %25)
  %27 = load i32, i32* %2, align 4
  %28 = mul nsw i32 3, %27
  %29 = add nsw i32 %28, 1
  store i32 %29, i32* %2, align 4
  br label %30

30:                                               ; preds = %21, %14
  %31 = load i32, i32* %2, align 4
  %32 = icmp eq i32 %31, 1
  br i1 %32, label %33, label %34

33:                                               ; preds = %30
  br label %38

34:                                               ; preds = %30
  br label %35

35:                                               ; preds = %34
  %36 = load i32, i32* %3, align 4
  %37 = add nsw i32 %36, 1
  store i32 %37, i32* %3, align 4
  br label %10

38:                                               ; preds = %33
  %39 = call i32 (i8*, ...) @printf(i8* getelementptr inbounds ([5 x i8], [5 x i8]* @.str.4, i64 0, i64 0))
  br label %40

40:                                               ; preds = %38, %7
  ret i32 0
}

declare dso_local i32 @__isoc99_scanf(i8*, ...) #1

declare dso_local i32 @printf(i8*, ...) #1


!llvm.module.flags = !{!0}
!llvm.ident = !{!1}

!0 = !{i32 1, !"wchar_size", i32 4}
!1 = !{!"clang version 10.0.0-4ubuntu1 "}
